target datalayout = "e-m:e-p270:32:32-p271:32:32-p272:64:64-i64:64-i128:128-f80:128-n8:16:32:64-S128"
target triple = "x86_64-pc-linux-gnu"

%struct.jv = type { i8, i8, i16, i32, %union.anon }
%union.anon = type { ptr }
%struct.location = type { i32, i32 }
%struct.block = type { ptr, ptr }
%struct.locfile = type { %struct.jv, ptr, i32, ptr, i32, ptr, ptr, i32 }

@.str.63 = private unnamed_addr constant [5 x i8] c"file\00", align 1
@.str.64 = private unnamed_addr constant [5 x i8] c"line\00", align 1

; Function Attrs: nounwind uwtable
define internal { ptr, ptr } @gen_loc_object(ptr noundef %0, ptr noundef %1) #0 {
  %3 = alloca %struct.block, align 8
  %4 = alloca ptr, align 8
  %5 = alloca ptr, align 8
  %6 = alloca %struct.jv, align 8
  %7 = alloca %struct.jv, align 8
  %8 = alloca %struct.jv, align 8
  %9 = alloca %struct.jv, align 8
  %10 = alloca %struct.jv, align 8
  %11 = alloca %struct.jv, align 8
  %12 = alloca %struct.jv, align 8
  store ptr %0, ptr %4, align 8, !tbaa !4
  store ptr %1, ptr %5, align 8, !tbaa !12
  %13 = call { i64, ptr } @jv_object()
  %14 = getelementptr inbounds nuw { i64, ptr }, ptr %8, i32 0, i32 0
  %15 = extractvalue { i64, ptr } %13, 0
  store i64 %15, ptr %14, align 8
  %16 = getelementptr inbounds nuw { i64, ptr }, ptr %8, i32 0, i32 1
  %17 = extractvalue { i64, ptr } %13, 1
  store ptr %17, ptr %16, align 8
  %18 = call { i64, ptr } @jv_string(ptr noundef @.str.63)
  %19 = getelementptr inbounds nuw { i64, ptr }, ptr %9, i32 0, i32 0
  %20 = extractvalue { i64, ptr } %18, 0
  store i64 %20, ptr %19, align 8
  %21 = getelementptr inbounds nuw { i64, ptr }, ptr %9, i32 0, i32 1
  %22 = extractvalue { i64, ptr } %18, 1
  store ptr %22, ptr %21, align 8
  %23 = load ptr, ptr %5, align 8, !tbaa !12
  %24 = getelementptr inbounds nuw %struct.locfile, ptr %23, i32 0, i32 0
  %25 = getelementptr inbounds nuw { i64, ptr }, ptr %24, i32 0, i32 0
  %26 = load i64, ptr %25, align 8
  %27 = getelementptr inbounds nuw { i64, ptr }, ptr %24, i32 0, i32 1
  %28 = load ptr, ptr %27, align 8
  %29 = call { i64, ptr } @jv_copy(i64 %26, ptr %28)
  %30 = getelementptr inbounds nuw { i64, ptr }, ptr %10, i32 0, i32 0
  %31 = extractvalue { i64, ptr } %29, 0
  store i64 %31, ptr %30, align 8
  %32 = getelementptr inbounds nuw { i64, ptr }, ptr %10, i32 0, i32 1
  %33 = extractvalue { i64, ptr } %29, 1
  store ptr %33, ptr %32, align 8
  %34 = getelementptr inbounds nuw { i64, ptr }, ptr %8, i32 0, i32 0
  %35 = load i64, ptr %34, align 8
  %36 = getelementptr inbounds nuw { i64, ptr }, ptr %8, i32 0, i32 1
  %37 = load ptr, ptr %36, align 8
  %38 = getelementptr inbounds nuw { i64, ptr }, ptr %9, i32 0, i32 0
  %39 = load i64, ptr %38, align 8
  %40 = getelementptr inbounds nuw { i64, ptr }, ptr %9, i32 0, i32 1
  %41 = load ptr, ptr %40, align 8
  %42 = getelementptr inbounds nuw { i64, ptr }, ptr %10, i32 0, i32 0
  %43 = load i64, ptr %42, align 8
  %44 = getelementptr inbounds nuw { i64, ptr }, ptr %10, i32 0, i32 1
  %45 = load ptr, ptr %44, align 8
  %46 = call { i64, ptr } @jv_object_set(i64 %35, ptr %37, i64 %39, ptr %41, i64 %43, ptr %45)
  %47 = getelementptr inbounds nuw { i64, ptr }, ptr %7, i32 0, i32 0
  %48 = extractvalue { i64, ptr } %46, 0
  store i64 %48, ptr %47, align 8
  %49 = getelementptr inbounds nuw { i64, ptr }, ptr %7, i32 0, i32 1
  %50 = extractvalue { i64, ptr } %46, 1
  store ptr %50, ptr %49, align 8
  %51 = call { i64, ptr } @jv_string(ptr noundef @.str.64)
  %52 = getelementptr inbounds nuw { i64, ptr }, ptr %11, i32 0, i32 0
  %53 = extractvalue { i64, ptr } %51, 0
  store i64 %53, ptr %52, align 8
  %54 = getelementptr inbounds nuw { i64, ptr }, ptr %11, i32 0, i32 1
  %55 = extractvalue { i64, ptr } %51, 1
  store ptr %55, ptr %54, align 8
  %56 = load ptr, ptr %5, align 8, !tbaa !12
  %57 = load ptr, ptr %4, align 8, !tbaa !4
  %58 = getelementptr inbounds nuw %struct.location, ptr %57, i32 0, i32 0
  %59 = load i32, ptr %58, align 4, !tbaa !36
  %60 = call i32 @locfile_get_line(ptr noundef %56, i32 noundef %59)
  %61 = add nsw i32 %60, 1
  %62 = sitofp i32 %61 to double
  %63 = call { i64, ptr } @jv_number(double noundef %62)
  %64 = getelementptr inbounds nuw { i64, ptr }, ptr %12, i32 0, i32 0
  %65 = extractvalue { i64, ptr } %63, 0
  store i64 %65, ptr %64, align 8
  %66 = getelementptr inbounds nuw { i64, ptr }, ptr %12, i32 0, i32 1
  %67 = extractvalue { i64, ptr } %63, 1
  store ptr %67, ptr %66, align 8
  %68 = getelementptr inbounds nuw { i64, ptr }, ptr %7, i32 0, i32 0
  %69 = load i64, ptr %68, align 8
  %70 = getelementptr inbounds nuw { i64, ptr }, ptr %7, i32 0, i32 1
  %71 = load ptr, ptr %70, align 8
  %72 = getelementptr inbounds nuw { i64, ptr }, ptr %11, i32 0, i32 0
  %73 = load i64, ptr %72, align 8
  %74 = getelementptr inbounds nuw { i64, ptr }, ptr %11, i32 0, i32 1
  %75 = load ptr, ptr %74, align 8
  %76 = getelementptr inbounds nuw { i64, ptr }, ptr %12, i32 0, i32 0
  %77 = load i64, ptr %76, align 8
  %78 = getelementptr inbounds nuw { i64, ptr }, ptr %12, i32 0, i32 1
  %79 = load ptr, ptr %78, align 8
  %80 = call { i64, ptr } @jv_object_set(i64 %69, ptr %71, i64 %73, ptr %75, i64 %77, ptr %79)
  %81 = getelementptr inbounds nuw { i64, ptr }, ptr %6, i32 0, i32 0
  %82 = extractvalue { i64, ptr } %80, 0
  store i64 %82, ptr %81, align 8
  %83 = getelementptr inbounds nuw { i64, ptr }, ptr %6, i32 0, i32 1
  %84 = extractvalue { i64, ptr } %80, 1
  store ptr %84, ptr %83, align 8
  %85 = getelementptr inbounds nuw { i64, ptr }, ptr %6, i32 0, i32 0
  %86 = load i64, ptr %85, align 8
  %87 = getelementptr inbounds nuw { i64, ptr }, ptr %6, i32 0, i32 1
  %88 = load ptr, ptr %87, align 8
  %89 = call { ptr, ptr } @gen_const(i64 %86, ptr %88)
  %90 = getelementptr inbounds nuw { ptr, ptr }, ptr %3, i32 0, i32 0
  %91 = extractvalue { ptr, ptr } %89, 0
  store ptr %91, ptr %90, align 8
  %92 = getelementptr inbounds nuw { ptr, ptr }, ptr %3, i32 0, i32 1
  %93 = extractvalue { ptr, ptr } %89, 1
  store ptr %93, ptr %92, align 8
  %94 = load { ptr, ptr }, ptr %3, align 8
  ret { ptr, ptr } %94
}