; Function Attrs: nounwind uwtable
define internal fastcc { ptr, ptr } @gen_loc_object(i32 %.0.val, ptr noundef %0) unnamed_addr #0 {
  %2 = tail call { i64, ptr } @jv_object() #10
  %3 = extractvalue { i64, ptr } %2, 0
  %4 = extractvalue { i64, ptr } %2, 1
  %5 = tail call { i64, ptr } @jv_string(ptr noundef nonnull @.str.63) #10
  %6 = extractvalue { i64, ptr } %5, 0
  %7 = extractvalue { i64, ptr } %5, 1
  %8 = load i64, ptr %0, align 8
  %9 = getelementptr inbounds nuw i8, ptr %0, i64 8
  %10 = load ptr, ptr %9, align 8
  %11 = tail call { i64, ptr } @jv_copy(i64 %8, ptr %10) #10
  %12 = extractvalue { i64, ptr } %11, 0
  %13 = extractvalue { i64, ptr } %11, 1
  %14 = tail call { i64, ptr } @jv_object_set(i64 %3, ptr %4, i64 %6, ptr %7, i64 %12, ptr %13) #10
  %15 = extractvalue { i64, ptr } %14, 0
  %16 = extractvalue { i64, ptr } %14, 1
  %17 = tail call { i64, ptr } @jv_string(ptr noundef nonnull @.str.64) #10
  %18 = extractvalue { i64, ptr } %17, 0
  %19 = extractvalue { i64, ptr } %17, 1
  %20 = tail call i32 @locfile_get_line(ptr noundef nonnull %0, i32 noundef %.0.val) #10
  %21 = add nsw i32 %20, 1
  %22 = sitofp i32 %21 to double
  %23 = tail call { i64, ptr } @jv_number(double noundef %22) #10
  %24 = extractvalue { i64, ptr } %23, 0
  %25 = extractvalue { i64, ptr } %23, 1
  %26 = tail call { i64, ptr } @jv_object_set(i64 %15, ptr %16, i64 %18, ptr %19, i64 %24, ptr %25) #10
  %27 = extractvalue { i64, ptr } %26, 0
  %28 = extractvalue { i64, ptr } %26, 1
  %29 = tail call { ptr, ptr } @gen_const(i64 %27, ptr %28) #10
  ret { ptr, ptr } %29
}